target datalayout = "e-m:e-p270:32:32-p271:32:32-p272:64:64-i64:64-i128:128-f80:128-n8:16:32:64-S128"
target triple = "x86_64-pc-linux-gnu"

%struct.mbedtls_ssl_context = type { ptr, i32, i32, i32, i32, i32, ptr, ptr, ptr, ptr, ptr, ptr, ptr, ptr, ptr, ptr, ptr, ptr, ptr, ptr, ptr, ptr, ptr, ptr, ptr, ptr, ptr, ptr, ptr, ptr, ptr, ptr, ptr, i32, i64, i64, i16, i64, i64, i64, i64, i32, i32, i8, i8, i32, i8, ptr, ptr, ptr, ptr, ptr, ptr, ptr, i32, i64, i64, [8 x i8], i16, ptr, ptr, ptr, i64, i32, i64, [12 x i8], [12 x i8], [32 x i8], i8, i8, ptr, ptr, %union.mbedtls_ssl_user_data_t }
%union.mbedtls_ssl_user_data_t = type { i64 }

@.str = private unnamed_addr constant [130 x i8] c"generated/home/dtcxzyw/WorkSpace/Projects/compilers/llvm-opt-benchmark/bench/lief/bench_build/mbed_src/library/ssl_tls12_server.c\00", align 1
@.str.57 = private unnamed_addr constant [32 x i8] c"non-matching renegotiation info\00", align 1
@.str.58 = private unnamed_addr constant [35 x i8] c"non-zero length renegotiation info\00", align 1

; Function Attrs: nounwind uwtable
define internal i32 @ssl_parse_renegotiation_info(ptr noundef %0, ptr noundef %1, i64 noundef %2) #0 {
  %4 = alloca i32, align 4
  %5 = alloca ptr, align 8
  %6 = alloca ptr, align 8
  %7 = alloca i64, align 8
  store ptr %0, ptr %5, align 8, !tbaa !3
  store ptr %1, ptr %6, align 8, !tbaa !8
  store i64 %2, ptr %7, align 8, !tbaa !10
  %8 = load ptr, ptr %5, align 8, !tbaa !3
  %9 = getelementptr inbounds nuw %struct.mbedtls_ssl_context, ptr %8, i32 0, i32 2
  %10 = load i32, ptr %9, align 4, !tbaa !53
  %11 = icmp ne i32 %10, 0
  br i1 %11, label %12, label %44

12:                                               ; preds = %3
  %13 = load i64, ptr %7, align 8, !tbaa !10
  %14 = load ptr, ptr %5, align 8, !tbaa !3
  %15 = getelementptr inbounds nuw %struct.mbedtls_ssl_context, ptr %14, i32 0, i32 64
  %16 = load i64, ptr %15, align 8, !tbaa !138
  %17 = add i64 1, %16
  %18 = icmp ne i64 %13, %17
  br i1 %18, label %39, label %19

19:                                               ; preds = %12
  %20 = load ptr, ptr %6, align 8, !tbaa !8
  %21 = getelementptr inbounds i8, ptr %20, i64 0
  %22 = load i8, ptr %21, align 1, !tbaa !56
  %23 = zext i8 %22 to i64
  %24 = load ptr, ptr %5, align 8, !tbaa !3
  %25 = getelementptr inbounds nuw %struct.mbedtls_ssl_context, ptr %24, i32 0, i32 64
  %26 = load i64, ptr %25, align 8, !tbaa !138
  %27 = icmp ne i64 %23, %26
  br i1 %27, label %39, label %28

28:                                               ; preds = %19
  %29 = load ptr, ptr %6, align 8, !tbaa !8
  %30 = getelementptr inbounds i8, ptr %29, i64 1
  %31 = load ptr, ptr %5, align 8, !tbaa !3
  %32 = getelementptr inbounds nuw %struct.mbedtls_ssl_context, ptr %31, i32 0, i32 66
  %33 = getelementptr inbounds [12 x i8], ptr %32, i64 0, i64 0
  %34 = load ptr, ptr %5, align 8, !tbaa !3
  %35 = getelementptr inbounds nuw %struct.mbedtls_ssl_context, ptr %34, i32 0, i32 64
  %36 = load i64, ptr %35, align 8, !tbaa !138
  %37 = call i32 @mbedtls_ct_memcmp(ptr noundef %30, ptr noundef %33, i64 noundef %36)
  %38 = icmp ne i32 %37, 0
  br i1 %38, label %39, label %43

39:                                               ; preds = %28, %19, %12
  %40 = load ptr, ptr %5, align 8, !tbaa !3
  call void (ptr, i32, ptr, i32, ptr, ...) @mbedtls_debug_print_msg(ptr noundef %40, i32 noundef 1, ptr noundef @.str, i32 noundef 118, ptr noundef @.str.57)
  %41 = load ptr, ptr %5, align 8, !tbaa !3
  %42 = call i32 @mbedtls_ssl_send_alert_message(ptr noundef %41, i8 noundef zeroext 2, i8 noundef zeroext 40)
  store i32 -28160, ptr %4, align 4
  br label %61

43:                                               ; preds = %28
  br label %60

44:                                               ; preds = %3
  %45 = load i64, ptr %7, align 8, !tbaa !10
  %46 = icmp ne i64 %45, 1
  br i1 %46, label %53, label %47

47:                                               ; preds = %44
  %48 = load ptr, ptr %6, align 8, !tbaa !8
  %49 = getelementptr inbounds i8, ptr %48, i64 0
  %50 = load i8, ptr %49, align 1, !tbaa !56
  %51 = zext i8 %50 to i32
  %52 = icmp ne i32 %51, 0
  br i1 %52, label %53, label %57

53:                                               ; preds = %47, %44
  %54 = load ptr, ptr %5, align 8, !tbaa !3
  call void (ptr, i32, ptr, i32, ptr, ...) @mbedtls_debug_print_msg(ptr noundef %54, i32 noundef 1, ptr noundef @.str, i32 noundef 127, ptr noundef @.str.58)
  %55 = load ptr, ptr %5, align 8, !tbaa !3
  %56 = call i32 @mbedtls_ssl_send_alert_message(ptr noundef %55, i8 noundef zeroext 2, i8 noundef zeroext 40)
  store i32 -28160, ptr %4, align 4
  br label %61

57:                                               ; preds = %47
  %58 = load ptr, ptr %5, align 8, !tbaa !3
  %59 = getelementptr inbounds nuw %struct.mbedtls_ssl_context, ptr %58, i32 0, i32 63
  store i32 1, ptr %59, align 8, !tbaa !79
  br label %60

60:                                               ; preds = %57, %43
  store i32 0, ptr %4, align 4
  br label %61

61:                                               ; preds = %60, %53, %39
  %62 = load i32, ptr %4, align 4
  ret i32 %62
}