; Function Attrs: nounwind uwtable
define internal fastcc range(i32 -28160, 1) i32 @ssl_parse_renegotiation_info(ptr noundef %0, ptr noundef %1, i64 noundef range(i64 0, 65536) %2) unnamed_addr #5 {
  %4 = getelementptr inbounds nuw i8, ptr %0, i64 12
  %5 = load i32, ptr %4, align 4, !tbaa !34
  %.not = icmp eq i32 %5, 0
  br i1 %.not, label %19, label %6

6:                                                ; preds = %3
  %7 = getelementptr inbounds nuw i8, ptr %0, i64 472
  %8 = load i64, ptr %7, align 8, !tbaa !104
  %9 = add i64 %8, 1
  %.not18 = icmp eq i64 %2, %9
  br i1 %.not18, label %10, label %17

10:                                               ; preds = %6
  %11 = load i8, ptr %1, align 1, !tbaa !38
  %12 = zext i8 %11 to i64
  %.not19 = icmp eq i64 %8, %12
  br i1 %.not19, label %13, label %17

13:                                               ; preds = %10
  %14 = getelementptr inbounds nuw i8, ptr %1, i64 1
  %15 = getelementptr inbounds nuw i8, ptr %0, i64 492
  %16 = tail call i32 @mbedtls_ct_memcmp(ptr noundef nonnull %14, ptr noundef nonnull %15, i64 noundef %8) #12
  %.not20 = icmp eq i32 %16, 0
  br i1 %.not20, label %26, label %17

17:                                               ; preds = %13, %10, %6
  tail call void (ptr, i32, ptr, i32, ptr, ...) @mbedtls_debug_print_msg(ptr noundef nonnull %0, i32 noundef 1, ptr noundef nonnull @.str, i32 noundef 118, ptr noundef nonnull @.str.57) #12
  %18 = tail call i32 @mbedtls_ssl_send_alert_message(ptr noundef nonnull %0, i8 noundef zeroext 2, i8 noundef zeroext 40) #12
  br label %26

19:                                               ; preds = %3
  %.not16 = icmp eq i64 %2, 1
  br i1 %.not16, label %20, label %22

20:                                               ; preds = %19
  %21 = load i8, ptr %1, align 1, !tbaa !38
  %.not17 = icmp eq i8 %21, 0
  br i1 %.not17, label %24, label %22

22:                                               ; preds = %20, %19
  tail call void (ptr, i32, ptr, i32, ptr, ...) @mbedtls_debug_print_msg(ptr noundef nonnull %0, i32 noundef 1, ptr noundef nonnull @.str, i32 noundef 127, ptr noundef nonnull @.str.58) #12
  %23 = tail call i32 @mbedtls_ssl_send_alert_message(ptr noundef nonnull %0, i8 noundef zeroext 2, i8 noundef zeroext 40) #12
  br label %26

24:                                               ; preds = %20
  %25 = getelementptr inbounds nuw i8, ptr %0, i64 464
  store i32 1, ptr %25, align 8, !tbaa !70
  br label %26

26:                                               ; preds = %24, %13, %22, %17
  %.0 = phi i32 [ -28160, %17 ], [ -28160, %22 ], [ 0, %13 ], [ 0, %24 ]
  ret i32 %.0
}